target datalayout = "e-m:e-p270:32:32-p271:32:32-p272:64:64-i64:64-i128:128-f80:128-n8:16:32:64-S128"
target triple = "x86_64-pc-linux-gnu"

%struct.rb_symbols_t = type { i32, ptr, i64, i64 }
%struct.st_table = type { i8, i8, i8, i32, ptr, i64, ptr, i64, i64, ptr }

@ruby_global_symbols = hidden global { i32, [4 x i8], ptr, i64, i64 } { i32 246, [4 x i8] zeroinitializer, ptr null, i64 0, i64 0 }, align 8
@.str.5 = private unnamed_addr constant [12 x i8] c"../symbol.c\00", align 1
@ruby_single_main_ractor = external global ptr, align 8

; Function Attrs: inlinehint nounwind sspstrong uwtable
define internal zeroext i1 @rb_multi_ractor_p() #4 {
  %1 = alloca i1, align 1
  %2 = load ptr, ptr @ruby_single_main_ractor, align 8, !tbaa !94
  %3 = icmp ne ptr %2, null
  %4 = xor i1 %3, true
  %5 = xor i1 %4, true
  %6 = zext i1 %5 to i32
  %7 = sext i32 %6 to i64
  %8 = call i64 @llvm.expect.i64(i64 %7, i64 1)
  %9 = icmp ne i64 %8, 0
  br i1 %9, label %10, label %11

10:                                               ; preds = %0
  store i1 false, ptr %1, align 1
  br label %12

11:                                               ; preds = %0
  store i1 true, ptr %1, align 1
  br label %12

12:                                               ; preds = %11, %10
  %13 = load i1, ptr %1, align 1
  ret i1 %13
}

; Function Attrs: inlinehint nounwind sspstrong uwtable
define internal void @rb_vm_lock_leave(ptr noundef %0, ptr noundef %1, i32 noundef %2) #4 {
  %4 = alloca ptr, align 8
  %5 = alloca ptr, align 8
  %6 = alloca i32, align 4
  store ptr %0, ptr %4, align 8, !tbaa !40
  store ptr %1, ptr %5, align 8, !tbaa !33
  store i32 %2, ptr %6, align 4, !tbaa !21
  %7 = call zeroext i1 @rb_multi_ractor_p()
  br i1 %7, label %8, label %10

8:                                                ; preds = %3
  %9 = load ptr, ptr %4, align 8, !tbaa !40
  call void @rb_vm_lock_leave_body(ptr noundef %9)
  br label %10

10:                                               ; preds = %8, %3
  ret void
}

; Function Attrs: inlinehint nounwind sspstrong uwtable
define internal void @rb_vm_lock_enter(ptr noundef %0, ptr noundef %1, i32 noundef %2) #4 {
  %4 = alloca ptr, align 8
  %5 = alloca ptr, align 8
  %6 = alloca i32, align 4
  store ptr %0, ptr %4, align 8, !tbaa !40
  store ptr %1, ptr %5, align 8, !tbaa !33
  store i32 %2, ptr %6, align 4, !tbaa !21
  %7 = call zeroext i1 @rb_multi_ractor_p()
  br i1 %7, label %8, label %10

8:                                                ; preds = %3
  %9 = load ptr, ptr %4, align 8, !tbaa !40
  call void @rb_vm_lock_enter_body(ptr noundef %9)
  br label %10

10:                                               ; preds = %8, %3
  ret void
}

; Function Attrs: nounwind sspstrong uwtable
define dso_local i64 @rb_sym_all_symbols() #0 {
  %1 = alloca i64, align 8
  %2 = alloca ptr, align 8
  %3 = alloca i32, align 4
  call void @llvm.lifetime.start.p0(i64 8, ptr %1) #24
  call void @llvm.lifetime.start.p0(i64 8, ptr %2) #24
  store ptr @ruby_global_symbols, ptr %2, align 8, !tbaa !7
  call void @llvm.lifetime.start.p0(i64 4, ptr %3) #24
  call void @rb_vm_lock_enter(ptr noundef %3, ptr noundef @.str.5, i32 noundef 1062)
  %4 = load ptr, ptr %2, align 8, !tbaa !7
  %5 = getelementptr inbounds nuw %struct.rb_symbols_t, ptr %4, i32 0, i32 1
  %6 = load ptr, ptr %5, align 8, !tbaa !17
  %7 = getelementptr inbounds nuw %struct.st_table, ptr %6, i32 0, i32 5
  %8 = load i64, ptr %7, align 8, !tbaa !57
  %9 = call i64 @rb_ary_new_capa(i64 noundef %8)
  store i64 %9, ptr %1, align 8, !tbaa !11
  %10 = load ptr, ptr %2, align 8, !tbaa !7
  %11 = getelementptr inbounds nuw %struct.rb_symbols_t, ptr %10, i32 0, i32 1
  %12 = load ptr, ptr %11, align 8, !tbaa !17
  %13 = load i64, ptr %1, align 8, !tbaa !11
  %14 = call i32 @rb_st_foreach(ptr noundef %12, ptr noundef @symbols_i, i64 noundef %13)
  call void @rb_vm_lock_leave(ptr noundef %3, ptr noundef @.str.5, i32 noundef 1067)
  call void @llvm.lifetime.end.p0(i64 4, ptr %3) #24
  %15 = load i64, ptr %1, align 8, !tbaa !11
  call void @llvm.lifetime.end.p0(i64 8, ptr %2) #24
  call void @llvm.lifetime.end.p0(i64 8, ptr %1) #24
  ret i64 %15
}