; Function Attrs: nounwind sspstrong uwtable
define dso_local noundef i64 @rb_sym_all_symbols() local_unnamed_addr #0 {
  %1 = alloca i32, align 4
  call void @llvm.lifetime.start.p0(i64 4, ptr nonnull %1) #19
  %2 = load ptr, ptr @ruby_single_main_ractor, align 8, !tbaa !24
  %.not.i.i = icmp eq ptr %2, null
  br i1 %.not.i.i, label %3, label %rb_vm_lock_enter.exit

3:                                                ; preds = %0
  call void @rb_vm_lock_enter_body(ptr noundef nonnull %1) #19
  br label %rb_vm_lock_enter.exit

rb_vm_lock_enter.exit:                            ; preds = %0, %3
  %4 = load ptr, ptr getelementptr inbounds nuw (i8, ptr @ruby_global_symbols, i64 8), align 8, !tbaa !15
  %5 = getelementptr inbounds nuw i8, ptr %4, i64 16
  %6 = load i64, ptr %5, align 8, !tbaa !75
  %7 = call i64 @rb_ary_new_capa(i64 noundef %6) #19
  %8 = load ptr, ptr getelementptr inbounds nuw (i8, ptr @ruby_global_symbols, i64 8), align 8, !tbaa !15
  %9 = call i32 @rb_st_foreach(ptr noundef %8, ptr noundef nonnull @symbols_i, i64 noundef %7) #19
  %10 = load ptr, ptr @ruby_single_main_ractor, align 8, !tbaa !24
  %.not.i.i3 = icmp eq ptr %10, null
  br i1 %.not.i.i3, label %11, label %rb_vm_lock_leave.exit

11:                                               ; preds = %rb_vm_lock_enter.exit
  call void @rb_vm_lock_leave_body(ptr noundef nonnull %1) #19
  br label %rb_vm_lock_leave.exit

rb_vm_lock_leave.exit:                            ; preds = %rb_vm_lock_enter.exit, %11
  call void @llvm.lifetime.end.p0(i64 4, ptr nonnull %1) #19
  ret i64 %7
}